target datalayout = "e-m:e-p270:32:32-p271:32:32-p272:64:64-i64:64-i128:128-f80:128-n8:16:32:64-S128"
target triple = "x86_64-pc-linux-gnu"

%"class.sat::literal" = type { i32 }
%"class.std::_Function_base" = type { %"union.std::_Any_data", ptr }
%"union.std::_Any_data" = type { %"union.std::_Nocopy_types" }
%"union.std::_Nocopy_types" = type { { i64, i64 } }
%"class.sat::lut_finder" = type { ptr, i32, %class.vector, i64, i32, %class.ptr_vector, %class.svector, %class.svector, %class.svector.2, %class.svector, [7 x i64], %class.ptr_vector, %"class.std::function" }
%class.vector = type { ptr }
%class.svector.2 = type { %class.vector.3 }
%class.vector.3 = type { ptr }
%class.svector = type { %class.vector.1 }
%class.vector.1 = type { ptr }
%class.ptr_vector = type { %class.vector.0 }
%class.vector.0 = type { ptr }
%"class.std::function" = type { %"class.std::_Function_base", ptr }

; Function Attrs: mustprogress uwtable
define linkonce_odr hidden noundef nonnull align 8 dereferenceable(8) ptr @_ZN6vectorIjLb0EjE9push_backERKj(ptr noundef nonnull align 8 dereferenceable(8) %0, ptr noundef nonnull align 4 dereferenceable(4) %1) #4 comdat align 2 {
  %3 = alloca ptr, align 8
  %4 = alloca ptr, align 8
  store ptr %0, ptr %3, align 8, !tbaa !41
  store ptr %1, ptr %4, align 8, !tbaa !45
  %5 = load ptr, ptr %3, align 8
  %6 = getelementptr inbounds nuw %class.vector.1, ptr %5, i32 0, i32 0
  %7 = load ptr, ptr %6, align 8, !tbaa !44
  %8 = icmp eq ptr %7, null
  br i1 %8, label %19, label %9

9:                                                ; preds = %2
  %10 = getelementptr inbounds nuw %class.vector.1, ptr %5, i32 0, i32 0
  %11 = load ptr, ptr %10, align 8, !tbaa !44
  %12 = getelementptr inbounds i32, ptr %11, i64 -1
  %13 = load i32, ptr %12, align 4, !tbaa !29
  %14 = getelementptr inbounds nuw %class.vector.1, ptr %5, i32 0, i32 0
  %15 = load ptr, ptr %14, align 8, !tbaa !44
  %16 = getelementptr inbounds i32, ptr %15, i64 -2
  %17 = load i32, ptr %16, align 4, !tbaa !29
  %18 = icmp eq i32 %13, %17
  br i1 %18, label %19, label %20

19:                                               ; preds = %9, %2
  call void @_ZN6vectorIjLb0EjE13expand_vectorEv(ptr noundef nonnull align 8 dereferenceable(8) %5)
  br label %20

20:                                               ; preds = %19, %9
  %21 = getelementptr inbounds nuw %class.vector.1, ptr %5, i32 0, i32 0
  %22 = load ptr, ptr %21, align 8, !tbaa !44
  %23 = getelementptr inbounds nuw %class.vector.1, ptr %5, i32 0, i32 0
  %24 = load ptr, ptr %23, align 8, !tbaa !44
  %25 = getelementptr inbounds i32, ptr %24, i64 -1
  %26 = load i32, ptr %25, align 4, !tbaa !29
  %27 = zext i32 %26 to i64
  %28 = getelementptr inbounds nuw i32, ptr %22, i64 %27
  %29 = load ptr, ptr %4, align 8, !tbaa !45
  %30 = load i32, ptr %29, align 4, !tbaa !29
  store i32 %30, ptr %28, align 4, !tbaa !29
  %31 = getelementptr inbounds nuw %class.vector.1, ptr %5, i32 0, i32 0
  %32 = load ptr, ptr %31, align 8, !tbaa !44
  %33 = getelementptr inbounds i32, ptr %32, i64 -1
  %34 = load i32, ptr %33, align 4, !tbaa !29
  %35 = add i32 %34, 1
  store i32 %35, ptr %33, align 4, !tbaa !29
  ret ptr %5
}

; Function Attrs: mustprogress nounwind uwtable
define linkonce_odr hidden noundef zeroext i1 @_ZNK3sat7literal4signEv(ptr noundef nonnull align 4 dereferenceable(4) %0) #5 comdat align 2 {
  %2 = alloca ptr, align 8
  store ptr %0, ptr %2, align 8, !tbaa !51
  %3 = load ptr, ptr %2, align 8
  %4 = getelementptr inbounds nuw %"class.sat::literal", ptr %3, i32 0, i32 0
  %5 = load i32, ptr %4, align 4, !tbaa !80
  %6 = zext i32 %5 to i64
  %7 = and i64 %6, 1
  %8 = icmp ne i64 %7, 0
  ret i1 %8
}

; Function Attrs: mustprogress nounwind uwtable
define linkonce_odr hidden noundef i32 @_ZNK3sat7literal3varEv(ptr noundef nonnull align 4 dereferenceable(4) %0) #5 comdat align 2 {
  %2 = alloca ptr, align 8
  store ptr %0, ptr %2, align 8, !tbaa !51
  %3 = load ptr, ptr %2, align 8
  %4 = getelementptr inbounds nuw %"class.sat::literal", ptr %3, i32 0, i32 0
  %5 = load i32, ptr %4, align 4, !tbaa !80
  %6 = lshr i32 %5, 1
  ret i32 %6
}

; Function Attrs: mustprogress nounwind uwtable
define linkonce_odr hidden noundef nonnull align 4 dereferenceable(4) ptr @_ZN6vectorIjLb0EjEixEj(ptr noundef nonnull align 8 dereferenceable(8) %0, i32 noundef %1) #5 comdat align 2 {
  %3 = alloca ptr, align 8
  %4 = alloca i32, align 4
  store ptr %0, ptr %3, align 8, !tbaa !41
  store i32 %1, ptr %4, align 4, !tbaa !29
  %5 = load ptr, ptr %3, align 8
  %6 = getelementptr inbounds nuw %class.vector.1, ptr %5, i32 0, i32 0
  %7 = load ptr, ptr %6, align 8, !tbaa !44
  %8 = load i32, ptr %4, align 4, !tbaa !29
  %9 = zext i32 %8 to i64
  %10 = getelementptr inbounds nuw i32, ptr %7, i64 %9
  ret ptr %10
}

; Function Attrs: mustprogress nounwind uwtable
define linkonce_odr hidden noundef i32 @_ZNK6vectorIjLb0EjE4sizeEv(ptr noundef nonnull align 8 dereferenceable(8) %0) #5 comdat align 2 {
  %2 = alloca i32, align 4
  %3 = alloca ptr, align 8
  store ptr %0, ptr %3, align 8, !tbaa !41
  %4 = load ptr, ptr %3, align 8
  %5 = getelementptr inbounds nuw %class.vector.1, ptr %4, i32 0, i32 0
  %6 = load ptr, ptr %5, align 8, !tbaa !44
  %7 = icmp eq ptr %6, null
  br i1 %7, label %8, label %9

8:                                                ; preds = %1
  store i32 0, ptr %2, align 4
  br label %14

9:                                                ; preds = %1
  %10 = getelementptr inbounds nuw %class.vector.1, ptr %4, i32 0, i32 0
  %11 = load ptr, ptr %10, align 8, !tbaa !44
  %12 = getelementptr inbounds i32, ptr %11, i64 -1
  %13 = load i32, ptr %12, align 4, !tbaa !29
  store i32 %13, ptr %2, align 4
  br label %14

14:                                               ; preds = %9, %8
  %15 = load i32, ptr %2, align 4
  ret i32 %15
}

; Function Attrs: mustprogress nounwind uwtable
define linkonce_odr hidden void @_ZN6vectorIjLb0EjE5resetEv(ptr noundef nonnull align 8 dereferenceable(8) %0) #5 comdat align 2 {
  %2 = alloca ptr, align 8
  store ptr %0, ptr %2, align 8, !tbaa !41
  %3 = load ptr, ptr %2, align 8
  %4 = getelementptr inbounds nuw %class.vector.1, ptr %3, i32 0, i32 0
  %5 = load ptr, ptr %4, align 8, !tbaa !44
  %6 = icmp ne ptr %5, null
  br i1 %6, label %7, label %11

7:                                                ; preds = %1
  %8 = getelementptr inbounds nuw %class.vector.1, ptr %3, i32 0, i32 0
  %9 = load ptr, ptr %8, align 8, !tbaa !44
  %10 = getelementptr inbounds i32, ptr %9, i64 -1
  store i32 0, ptr %10, align 4, !tbaa !29
  br label %11

11:                                               ; preds = %7, %1
  ret void
}

; Function Attrs: mustprogress uwtable
define hidden noundef zeroext i1 @_ZN3sat10lut_finder11extract_lutENS_7literalES1_(ptr noundef nonnull align 8 dereferenceable(176) %0, i32 %1, i32 %2) #4 align 2 {
  %4 = alloca %"class.sat::literal", align 4
  %5 = alloca %"class.sat::literal", align 4
  %6 = alloca ptr, align 8
  %7 = alloca i32, align 4
  %8 = alloca i32, align 4
  %9 = getelementptr inbounds nuw %"class.sat::literal", ptr %4, i32 0, i32 0
  store i32 %1, ptr %9, align 4
  %10 = getelementptr inbounds nuw %"class.sat::literal", ptr %5, i32 0, i32 0
  store i32 %2, ptr %10, align 4
  store ptr %0, ptr %6, align 8, !tbaa !3
  %11 = load ptr, ptr %6, align 8
  %12 = getelementptr inbounds nuw %"class.sat::lut_finder", ptr %11, i32 0, i32 9
  call void @_ZN6vectorIjLb0EjE5resetEv(ptr noundef nonnull align 8 dereferenceable(8) %12)
  call void @llvm.lifetime.start.p0(i64 4, ptr %7) #3
  store i32 0, ptr %7, align 4, !tbaa !29
  call void @llvm.lifetime.start.p0(i64 4, ptr %8) #3
  store i32 0, ptr %8, align 4, !tbaa !29
  br label %13

13:                                               ; preds = %52, %3
  %14 = load i32, ptr %8, align 4, !tbaa !29
  %15 = getelementptr inbounds nuw %"class.sat::lut_finder", ptr %11, i32 0, i32 7
  %16 = call noundef i32 @_ZNK6vectorIjLb0EjE4sizeEv(ptr noundef nonnull align 8 dereferenceable(8) %15)
  %17 = icmp ult i32 %14, %16
  br i1 %17, label %19, label %18

18:                                               ; preds = %13
  call void @llvm.lifetime.end.p0(i64 4, ptr %8) #3
  br label %55

19:                                               ; preds = %13
  %20 = getelementptr inbounds nuw %"class.sat::lut_finder", ptr %11, i32 0, i32 7
  %21 = load i32, ptr %8, align 4, !tbaa !29
  %22 = call noundef nonnull align 4 dereferenceable(4) ptr @_ZN6vectorIjLb0EjEixEj(ptr noundef nonnull align 8 dereferenceable(8) %20, i32 noundef %21)
  %23 = load i32, ptr %22, align 4, !tbaa !29
  %24 = call noundef i32 @_ZNK3sat7literal3varEv(ptr noundef nonnull align 4 dereferenceable(4) %4)
  %25 = icmp eq i32 %23, %24
  br i1 %25, label %26, label %33

26:                                               ; preds = %19
  %27 = call noundef zeroext i1 @_ZNK3sat7literal4signEv(ptr noundef nonnull align 4 dereferenceable(4) %4)
  %28 = zext i1 %27 to i32
  %29 = load i32, ptr %8, align 4, !tbaa !29
  %30 = shl i32 %28, %29
  %31 = load i32, ptr %7, align 4, !tbaa !29
  %32 = or i32 %31, %30
  store i32 %32, ptr %7, align 4, !tbaa !29
  br label %51

33:                                               ; preds = %19
  %34 = getelementptr inbounds nuw %"class.sat::lut_finder", ptr %11, i32 0, i32 7
  %35 = load i32, ptr %8, align 4, !tbaa !29
  %36 = call noundef nonnull align 4 dereferenceable(4) ptr @_ZN6vectorIjLb0EjEixEj(ptr noundef nonnull align 8 dereferenceable(8) %34, i32 noundef %35)
  %37 = load i32, ptr %36, align 4, !tbaa !29
  %38 = call noundef i32 @_ZNK3sat7literal3varEv(ptr noundef nonnull align 4 dereferenceable(4) %5)
  %39 = icmp eq i32 %37, %38
  br i1 %39, label %40, label %47

40:                                               ; preds = %33
  %41 = call noundef zeroext i1 @_ZNK3sat7literal4signEv(ptr noundef nonnull align 4 dereferenceable(4) %5)
  %42 = zext i1 %41 to i32
  %43 = load i32, ptr %8, align 4, !tbaa !29
  %44 = shl i32 %42, %43
  %45 = load i32, ptr %7, align 4, !tbaa !29
  %46 = or i32 %45, %44
  store i32 %46, ptr %7, align 4, !tbaa !29
  br label %50

47:                                               ; preds = %33
  %48 = getelementptr inbounds nuw %"class.sat::lut_finder", ptr %11, i32 0, i32 9
  %49 = call noundef nonnull align 8 dereferenceable(8) ptr @_ZN6vectorIjLb0EjE9push_backERKj(ptr noundef nonnull align 8 dereferenceable(8) %48, ptr noundef nonnull align 4 dereferenceable(4) %8)
  br label %50

50:                                               ; preds = %47, %40
  br label %51

51:                                               ; preds = %50, %26
  br label %52

52:                                               ; preds = %51
  %53 = load i32, ptr %8, align 4, !tbaa !29
  %54 = add i32 %53, 1
  store i32 %54, ptr %8, align 4, !tbaa !29
  br label %13, !llvm.loop !93

55:                                               ; preds = %18
  %56 = load i32, ptr %7, align 4, !tbaa !29
  %57 = call noundef zeroext i1 @_ZN3sat10lut_finder19update_combinationsEj(ptr noundef nonnull align 8 dereferenceable(176) %11, i32 noundef %56)
  call void @llvm.lifetime.end.p0(i64 4, ptr %7) #3
  ret i1 %57
}