; Function Attrs: mustprogress uwtable
define hidden noundef zeroext i1 @_ZN3sat10lut_finder11extract_lutENS_7literalES1_(ptr noundef nonnull align 8 dereferenceable(176) %0, i32 %1, i32 %2) local_unnamed_addr #3 align 2 {
  %4 = getelementptr inbounds nuw i8, ptr %0, i64 72
  %5 = load ptr, ptr %4, align 8, !tbaa !31
  %.not.i = icmp eq ptr %5, null
  br i1 %.not.i, label %_ZN6vectorIjLb0EjE5resetEv.exit, label %6

6:                                                ; preds = %3
  %7 = getelementptr inbounds i8, ptr %5, i64 -4
  store i32 0, ptr %7, align 4, !tbaa !10
  br label %_ZN6vectorIjLb0EjE5resetEv.exit

_ZN6vectorIjLb0EjE5resetEv.exit:                  ; preds = %3, %6
  %8 = getelementptr inbounds nuw i8, ptr %0, i64 56
  %9 = lshr i32 %1, 1
  %10 = lshr i32 %2, 1
  %11 = and i32 %2, 1
  %12 = and i32 %1, 1
  br label %13

13:                                               ; preds = %54, %_ZN6vectorIjLb0EjE5resetEv.exit
  %14 = phi ptr [ %55, %54 ], [ %5, %_ZN6vectorIjLb0EjE5resetEv.exit ]
  %indvars.iv = phi i64 [ %indvars.iv.next, %54 ], [ 0, %_ZN6vectorIjLb0EjE5resetEv.exit ]
  %.0 = phi i32 [ %.1, %54 ], [ 0, %_ZN6vectorIjLb0EjE5resetEv.exit ]
  %15 = load ptr, ptr %8, align 8, !tbaa !31
  %16 = icmp eq ptr %15, null
  br i1 %16, label %_ZNK6vectorIjLb0EjE4sizeEv.exit, label %17

17:                                               ; preds = %13
  %18 = getelementptr inbounds i8, ptr %15, i64 -4
  %19 = load i32, ptr %18, align 4, !tbaa !10
  %20 = zext i32 %19 to i64
  br label %_ZNK6vectorIjLb0EjE4sizeEv.exit

_ZNK6vectorIjLb0EjE4sizeEv.exit:                  ; preds = %13, %17
  %.0.i = phi i64 [ %20, %17 ], [ 0, %13 ]
  %21 = icmp samesign ult i64 %indvars.iv, %.0.i
  br i1 %21, label %24, label %22

22:                                               ; preds = %_ZNK6vectorIjLb0EjE4sizeEv.exit
  %23 = tail call noundef zeroext i1 @_ZN3sat10lut_finder19update_combinationsEj(ptr noundef nonnull align 8 dereferenceable(176) %0, i32 noundef %.0)
  ret i1 %23

24:                                               ; preds = %_ZNK6vectorIjLb0EjE4sizeEv.exit
  %25 = getelementptr inbounds nuw i32, ptr %15, i64 %indvars.iv
  %26 = load i32, ptr %25, align 4, !tbaa !10
  %27 = icmp eq i32 %26, %9
  br i1 %27, label %28, label %32

28:                                               ; preds = %24
  %29 = trunc nuw i64 %indvars.iv to i32
  %30 = shl nuw i32 %12, %29
  %31 = or i32 %.0, %30
  br label %54

32:                                               ; preds = %24
  %33 = icmp eq i32 %26, %10
  br i1 %33, label %34, label %38

34:                                               ; preds = %32
  %35 = trunc nuw i64 %indvars.iv to i32
  %36 = shl nuw i32 %11, %35
  %37 = or i32 %.0, %36
  br label %54

38:                                               ; preds = %32
  %39 = icmp eq ptr %14, null
  br i1 %39, label %46, label %40

40:                                               ; preds = %38
  %41 = getelementptr inbounds i8, ptr %14, i64 -4
  %42 = load i32, ptr %41, align 4, !tbaa !10
  %43 = getelementptr inbounds i8, ptr %14, i64 -8
  %44 = load i32, ptr %43, align 4, !tbaa !10
  %45 = icmp eq i32 %42, %44
  br i1 %45, label %46, label %_ZN6vectorIjLb0EjE9push_backERKj.exit

46:                                               ; preds = %40, %38
  tail call void @_ZN6vectorIjLb0EjE13expand_vectorEv(ptr noundef nonnull align 8 dereferenceable(8) %4)
  %.pre.i = load ptr, ptr %4, align 8, !tbaa !31
  %.phi.trans.insert.i = getelementptr inbounds i8, ptr %.pre.i, i64 -4
  %.pre2.i = load i32, ptr %.phi.trans.insert.i, align 4, !tbaa !10
  br label %_ZN6vectorIjLb0EjE9push_backERKj.exit

_ZN6vectorIjLb0EjE9push_backERKj.exit:            ; preds = %40, %46
  %47 = phi ptr [ %.pre.i, %46 ], [ %14, %40 ]
  %48 = phi i32 [ %.pre2.i, %46 ], [ %42, %40 ]
  %49 = getelementptr inbounds i8, ptr %47, i64 -4
  %50 = zext i32 %48 to i64
  %51 = getelementptr inbounds nuw i32, ptr %47, i64 %50
  %52 = trunc nuw i64 %indvars.iv to i32
  store i32 %52, ptr %51, align 4, !tbaa !10
  %53 = add i32 %48, 1
  store i32 %53, ptr %49, align 4, !tbaa !10
  br label %54

54:                                               ; preds = %28, %_ZN6vectorIjLb0EjE9push_backERKj.exit, %34
  %55 = phi ptr [ %14, %28 ], [ %14, %34 ], [ %47, %_ZN6vectorIjLb0EjE9push_backERKj.exit ]
  %.1 = phi i32 [ %31, %28 ], [ %37, %34 ], [ %.0, %_ZN6vectorIjLb0EjE9push_backERKj.exit ]
  %indvars.iv.next = add nuw nsw i64 %indvars.iv, 1
  br label %13, !llvm.loop !90
}